; Function Attrs: mustprogress uwtable
define hidden void @_ZN3euf6egraph12set_relevantEPNS_5enodeE(ptr noundef nonnull align 8 dereferenceable(536) %0, ptr noundef %1) local_unnamed_addr #3 align 2 {
  %3 = getelementptr inbounds nuw i8, ptr %1, i64 16
  %4 = load i8, ptr %3, align 8, !tbaa !111, !range !109, !noundef !110
  %5 = trunc nuw i8 %4 to i1
  br i1 %5, label %25, label %6

6:                                                ; preds = %2
  store i8 1, ptr %3, align 8, !tbaa !111
  %7 = getelementptr inbounds nuw i8, ptr %0, i64 112
  %8 = load ptr, ptr %7, align 8, !tbaa !121
  %9 = icmp eq ptr %8, null
  br i1 %9, label %16, label %10

10:                                               ; preds = %6
  %11 = getelementptr inbounds i8, ptr %8, i64 -4
  %12 = load i32, ptr %11, align 4, !tbaa !113
  %13 = getelementptr inbounds i8, ptr %8, i64 -8
  %14 = load i32, ptr %13, align 4, !tbaa !113
  %15 = icmp eq i32 %12, %14
  br i1 %15, label %16, label %_ZN6vectorIN3euf6egraph13update_recordELb0EjE9push_backEOS2_.exit

16:                                               ; preds = %10, %6
  tail call void @_ZN6vectorIN3euf6egraph13update_recordELb0EjE13expand_vectorEv(ptr noundef nonnull align 8 dereferenceable(8) %7)
  %.pre.i = load ptr, ptr %7, align 8, !tbaa !121
  %.phi.trans.insert.i = getelementptr inbounds i8, ptr %.pre.i, i64 -4
  %.pre2.i = load i32, ptr %.phi.trans.insert.i, align 4, !tbaa !113
  br label %_ZN6vectorIN3euf6egraph13update_recordELb0EjE9push_backEOS2_.exit

_ZN6vectorIN3euf6egraph13update_recordELb0EjE9push_backEOS2_.exit: ; preds = %10, %16
  %17 = phi i32 [ %.pre2.i, %16 ], [ %12, %10 ]
  %18 = phi ptr [ %.pre.i, %16 ], [ %8, %10 ]
  %19 = zext i32 %17 to i64
  %20 = getelementptr inbounds nuw %"struct.euf::egraph::update_record", ptr %18, i64 %19
  store i32 13, ptr %20, align 8, !tbaa !122
  %.sroa.44.0..sroa_idx = getelementptr inbounds nuw i8, ptr %20, i64 8
  store ptr %1, ptr %.sroa.44.0..sroa_idx, align 8, !tbaa !47
  %.sroa.5.0..sroa_idx = getelementptr inbounds nuw i8, ptr %20, i64 16
  store ptr null, ptr %.sroa.5.0..sroa_idx, align 8, !tbaa !47
  %.sroa.6.0..sroa_idx = getelementptr inbounds nuw i8, ptr %20, i64 24
  store i32 -1, ptr %.sroa.6.0..sroa_idx, align 8
  %21 = load ptr, ptr %7, align 8, !tbaa !121
  %22 = getelementptr inbounds i8, ptr %21, i64 -4
  %23 = load i32, ptr %22, align 4, !tbaa !113
  %24 = add i32 %23, 1
  store i32 %24, ptr %22, align 4, !tbaa !113
  br label %25

25:                                               ; preds = %2, %_ZN6vectorIN3euf6egraph13update_recordELb0EjE9push_backEOS2_.exit
  ret void
}